target datalayout = "e-m:e-p270:32:32-p271:32:32-p272:64:64-i64:64-i128:128-f80:128-n8:16:32:64-S128"
target triple = "x86_64-unknown-linux-gnu"

%"class.llvh::StringRef" = type { ptr, i64 }

; Function Attrs: mustprogress nounwind uwtable
define linkonce_odr noundef nonnull align 8 dereferenceable(8) ptr @_ZSt3minImERKT_S2_S2_(ptr noundef nonnull align 8 dereferenceable(8) %__a, ptr noundef nonnull align 8 dereferenceable(8) %__b) #0 comdat {
entry:
  %retval = alloca ptr, align 8
  %__a.addr = alloca ptr, align 8
  %__b.addr = alloca ptr, align 8
  store ptr %__a, ptr %__a.addr, align 8
  store ptr %__b, ptr %__b.addr, align 8
  %0 = load ptr, ptr %__b.addr, align 8
  %1 = load i64, ptr %0, align 8
  %2 = load ptr, ptr %__a.addr, align 8
  %3 = load i64, ptr %2, align 8
  %cmp = icmp ult i64 %1, %3
  br i1 %cmp, label %if.then, label %if.end

if.then:                                          ; preds = %entry
  %4 = load ptr, ptr %__b.addr, align 8
  store ptr %4, ptr %retval, align 8
  br label %return

if.end:                                           ; preds = %entry
  %5 = load ptr, ptr %__a.addr, align 8
  store ptr %5, ptr %retval, align 8
  br label %return

return:                                           ; preds = %if.end, %if.then
  %6 = load ptr, ptr %retval, align 8
  ret ptr %6
}

; Function Attrs: mustprogress nounwind uwtable
define linkonce_odr hidden void @_ZN4llvh9StringRefC2Ev(ptr noundef nonnull align 8 dereferenceable(16) %this) unnamed_addr #0 comdat align 2 {
entry:
  %this.addr = alloca ptr, align 8
  store ptr %this, ptr %this.addr, align 8
  %this1 = load ptr, ptr %this.addr, align 8
  %Data = getelementptr inbounds %"class.llvh::StringRef", ptr %this1, i32 0, i32 0
  store ptr null, ptr %Data, align 8
  %Length = getelementptr inbounds %"class.llvh::StringRef", ptr %this1, i32 0, i32 1
  store i64 0, ptr %Length, align 8
  ret void
}

; Function Attrs: mustprogress nounwind uwtable
define hidden { ptr, i64 } @_ZN4llvh3sys4path11parent_pathENS_9StringRefENS1_5StyleE(ptr %path.coerce0, i64 %path.coerce1, i32 noundef %style) #0 {
entry:
  %this.addr.i2 = alloca ptr, align 8
  %data.addr.i = alloca ptr, align 8
  %length.addr.i = alloca i64, align 8
  %retval.i = alloca %"class.llvh::StringRef", align 8
  %this.addr.i = alloca ptr, align 8
  %Start.addr.i = alloca i64, align 8
  %N.addr.i = alloca i64, align 8
  %ref.tmp.i = alloca i64, align 8
  %retval = alloca %"class.llvh::StringRef", align 8
  %path = alloca %"class.llvh::StringRef", align 8
  %style.addr = alloca i32, align 4
  %end_pos = alloca i64, align 8
  %agg.tmp = alloca %"class.llvh::StringRef", align 8
  %0 = getelementptr inbounds { ptr, i64 }, ptr %path, i32 0, i32 0
  store ptr %path.coerce0, ptr %0, align 8
  %1 = getelementptr inbounds { ptr, i64 }, ptr %path, i32 0, i32 1
  store i64 %path.coerce1, ptr %1, align 8
  store i32 %style, ptr %style.addr, align 4
  call void @llvm.memcpy.p0.p0.i64(ptr align 8 %agg.tmp, ptr align 8 %path, i64 16, i1 false)
  %2 = load i32, ptr %style.addr, align 4
  %3 = getelementptr inbounds { ptr, i64 }, ptr %agg.tmp, i32 0, i32 0
  %4 = load ptr, ptr %3, align 8
  %5 = getelementptr inbounds { ptr, i64 }, ptr %agg.tmp, i32 0, i32 1
  %6 = load i64, ptr %5, align 8
  %call = call noundef i64 @_ZN12_GLOBAL__N_115parent_path_endEN4llvh9StringRefENS0_3sys4path5StyleE(ptr %4, i64 %6, i32 noundef %2)
  store i64 %call, ptr %end_pos, align 8
  %7 = load i64, ptr %end_pos, align 8
  %cmp = icmp eq i64 %7, -1
  br i1 %cmp, label %if.then, label %if.else

if.then:                                          ; preds = %entry
  call void @llvm.memset.p0.i64(ptr align 8 %retval, i8 0, i64 16, i1 false)
  call void @_ZN4llvh9StringRefC2Ev(ptr noundef nonnull align 8 dereferenceable(16) %retval) #9
  br label %return

if.else:                                          ; preds = %entry
  %8 = load i64, ptr %end_pos, align 8
  store ptr %path, ptr %this.addr.i, align 8
  store i64 0, ptr %Start.addr.i, align 8
  store i64 %8, ptr %N.addr.i, align 8
  %this1.i = load ptr, ptr %this.addr.i, align 8
  %Length.i = getelementptr inbounds %"class.llvh::StringRef", ptr %this1.i, i32 0, i32 1
  %call.i = call noundef nonnull align 8 dereferenceable(8) ptr @_ZSt3minImERKT_S2_S2_(ptr noundef nonnull align 8 dereferenceable(8) %Start.addr.i, ptr noundef nonnull align 8 dereferenceable(8) %Length.i)
  %9 = load i64, ptr %call.i, align 8
  store i64 %9, ptr %Start.addr.i, align 8
  %10 = load ptr, ptr %this1.i, align 8
  %11 = load i64, ptr %Start.addr.i, align 8
  %add.ptr.i = getelementptr inbounds i8, ptr %10, i64 %11
  %Length2.i = getelementptr inbounds %"class.llvh::StringRef", ptr %this1.i, i32 0, i32 1
  %12 = load i64, ptr %Length2.i, align 8
  %13 = load i64, ptr %Start.addr.i, align 8
  %sub.i = sub i64 %12, %13
  store i64 %sub.i, ptr %ref.tmp.i, align 8
  %call3.i = call noundef nonnull align 8 dereferenceable(8) ptr @_ZSt3minImERKT_S2_S2_(ptr noundef nonnull align 8 dereferenceable(8) %N.addr.i, ptr noundef nonnull align 8 dereferenceable(8) %ref.tmp.i)
  %14 = load i64, ptr %call3.i, align 8
  store ptr %retval.i, ptr %this.addr.i2, align 8
  store ptr %add.ptr.i, ptr %data.addr.i, align 8
  store i64 %14, ptr %length.addr.i, align 8
  %this1.i3 = load ptr, ptr %this.addr.i2, align 8
  %15 = load ptr, ptr %data.addr.i, align 8
  store ptr %15, ptr %this1.i3, align 8
  %Length.i4 = getelementptr inbounds %"class.llvh::StringRef", ptr %this1.i3, i32 0, i32 1
  %16 = load i64, ptr %length.addr.i, align 8
  store i64 %16, ptr %Length.i4, align 8
  %17 = load { ptr, i64 }, ptr %retval.i, align 8
  %18 = getelementptr inbounds { ptr, i64 }, ptr %retval, i32 0, i32 0
  %19 = extractvalue { ptr, i64 } %17, 0
  store ptr %19, ptr %18, align 8
  %20 = getelementptr inbounds { ptr, i64 }, ptr %retval, i32 0, i32 1
  %21 = extractvalue { ptr, i64 } %17, 1
  store i64 %21, ptr %20, align 8
  br label %return

return:                                           ; preds = %if.else, %if.then
  %22 = load { ptr, i64 }, ptr %retval, align 8
  ret { ptr, i64 } %22
}