; Function Attrs: mustprogress nounwind uwtable
define hidden { ptr, i64 } @_ZN4llvh3sys4path11parent_pathENS_9StringRefENS1_5StyleE(ptr %path.coerce0, i64 %path.coerce1, i32 noundef %style) local_unnamed_addr #0 {
entry:
  %call = tail call fastcc noundef i64 @_ZN12_GLOBAL__N_115parent_path_endEN4llvh9StringRefENS0_3sys4path5StyleE(ptr %path.coerce0, i64 %path.coerce1, i32 noundef %style)
  %cmp = icmp eq i64 %call, -1
  %.sroa.speculated16 = tail call i64 @llvm.umin.i64(i64 %call, i64 %path.coerce1)
  %retval.sroa.4.0 = select i1 %cmp, i64 0, i64 %.sroa.speculated16
  %retval.sroa.0.0 = select i1 %cmp, ptr null, ptr %path.coerce0
  %.fca.0.insert = insertvalue { ptr, i64 } poison, ptr %retval.sroa.0.0, 0
  %.fca.1.insert = insertvalue { ptr, i64 } %.fca.0.insert, i64 %retval.sroa.4.0, 1
  ret { ptr, i64 } %.fca.1.insert
}